target datalayout = "e-m:e-p270:32:32-p271:32:32-p272:64:64-i64:64-i128:128-f80:128-n8:16:32:64-S128"
target triple = "x86_64-pc-linux-gnu"

@.str.1 = private unnamed_addr constant [101 x i8] c"generated/home/dtcxzyw/WorkSpace/Projects/compilers/llvm-opt-benchmark/bench/hdf5/hdf5/src/H5Pdxpl.c\00", align 1
@H5E_PLIST_g = external global i64, align 8
@H5E_CANTGET_g = external global i64, align 8
@.str.12 = private unnamed_addr constant [40 x i8] c"failed to retrieve transform expression\00", align 1
@__func__.H5P__dxfr_xform_enc = private unnamed_addr constant [20 x i8] c"H5P__dxfr_xform_enc\00", align 1

; Function Attrs: nounwind uwtable
define internal i32 @H5VM_log2_gen(i64 noundef %0) #0 {
  %2 = alloca i64, align 8
  %3 = alloca i32, align 4
  %4 = alloca i32, align 4
  %5 = alloca i32, align 4
  %6 = alloca i32, align 4
  store i64 %0, ptr %2, align 8
  %7 = load i64, ptr %2, align 8
  %8 = lshr i64 %7, 32
  %9 = trunc i64 %8 to i32
  store i32 %9, ptr %6, align 4
  %10 = icmp ne i32 %9, 0
  br i1 %10, label %11, label %61

11:                                               ; preds = %1
  %12 = load i64, ptr %2, align 8
  %13 = lshr i64 %12, 48
  %14 = trunc i64 %13 to i32
  store i32 %14, ptr %5, align 4
  %15 = icmp ne i32 %14, 0
  br i1 %15, label %16, label %38

16:                                               ; preds = %11
  %17 = load i64, ptr %2, align 8
  %18 = lshr i64 %17, 56
  %19 = trunc i64 %18 to i32
  store i32 %19, ptr %4, align 4
  %20 = icmp ne i32 %19, 0
  br i1 %20, label %21, label %28

21:                                               ; preds = %16
  %22 = load i32, ptr %4, align 4
  %23 = zext i32 %22 to i64
  %24 = getelementptr inbounds [256 x i8], ptr @LogTable256, i64 0, i64 %23
  %25 = load i8, ptr %24, align 1
  %26 = zext i8 %25 to i32
  %27 = add i32 56, %26
  br label %36

28:                                               ; preds = %16
  %29 = load i32, ptr %5, align 4
  %30 = and i32 %29, 255
  %31 = zext i32 %30 to i64
  %32 = getelementptr inbounds [256 x i8], ptr @LogTable256, i64 0, i64 %31
  %33 = load i8, ptr %32, align 1
  %34 = zext i8 %33 to i32
  %35 = add i32 48, %34
  br label %36

36:                                               ; preds = %28, %21
  %37 = phi i32 [ %27, %21 ], [ %35, %28 ]
  store i32 %37, ptr %3, align 4
  br label %60

38:                                               ; preds = %11
  %39 = load i64, ptr %2, align 8
  %40 = lshr i64 %39, 40
  %41 = trunc i64 %40 to i32
  store i32 %41, ptr %4, align 4
  %42 = icmp ne i32 %41, 0
  br i1 %42, label %43, label %50

43:                                               ; preds = %38
  %44 = load i32, ptr %4, align 4
  %45 = zext i32 %44 to i64
  %46 = getelementptr inbounds [256 x i8], ptr @LogTable256, i64 0, i64 %45
  %47 = load i8, ptr %46, align 1
  %48 = zext i8 %47 to i32
  %49 = add i32 40, %48
  br label %58

50:                                               ; preds = %38
  %51 = load i32, ptr %6, align 4
  %52 = and i32 %51, 255
  %53 = zext i32 %52 to i64
  %54 = getelementptr inbounds [256 x i8], ptr @LogTable256, i64 0, i64 %53
  %55 = load i8, ptr %54, align 1
  %56 = zext i8 %55 to i32
  %57 = add i32 32, %56
  br label %58

58:                                               ; preds = %50, %43
  %59 = phi i32 [ %49, %43 ], [ %57, %50 ]
  store i32 %59, ptr %3, align 4
  br label %60

60:                                               ; preds = %58, %36
  br label %110

61:                                               ; preds = %1
  %62 = load i64, ptr %2, align 8
  %63 = lshr i64 %62, 16
  %64 = trunc i64 %63 to i32
  store i32 %64, ptr %5, align 4
  %65 = icmp ne i32 %64, 0
  br i1 %65, label %66, label %88

66:                                               ; preds = %61
  %67 = load i64, ptr %2, align 8
  %68 = lshr i64 %67, 24
  %69 = trunc i64 %68 to i32
  store i32 %69, ptr %4, align 4
  %70 = icmp ne i32 %69, 0
  br i1 %70, label %71, label %78

71:                                               ; preds = %66
  %72 = load i32, ptr %4, align 4
  %73 = zext i32 %72 to i64
  %74 = getelementptr inbounds [256 x i8], ptr @LogTable256, i64 0, i64 %73
  %75 = load i8, ptr %74, align 1
  %76 = zext i8 %75 to i32
  %77 = add i32 24, %76
  br label %86

78:                                               ; preds = %66
  %79 = load i32, ptr %5, align 4
  %80 = and i32 %79, 255
  %81 = zext i32 %80 to i64
  %82 = getelementptr inbounds [256 x i8], ptr @LogTable256, i64 0, i64 %81
  %83 = load i8, ptr %82, align 1
  %84 = zext i8 %83 to i32
  %85 = add i32 16, %84
  br label %86

86:                                               ; preds = %78, %71
  %87 = phi i32 [ %77, %71 ], [ %85, %78 ]
  store i32 %87, ptr %3, align 4
  br label %109

88:                                               ; preds = %61
  %89 = load i64, ptr %2, align 8
  %90 = lshr i64 %89, 8
  %91 = trunc i64 %90 to i32
  store i32 %91, ptr %4, align 4
  %92 = icmp ne i32 %91, 0
  br i1 %92, label %93, label %100

93:                                               ; preds = %88
  %94 = load i32, ptr %4, align 4
  %95 = zext i32 %94 to i64
  %96 = getelementptr inbounds [256 x i8], ptr @LogTable256, i64 0, i64 %95
  %97 = load i8, ptr %96, align 1
  %98 = zext i8 %97 to i32
  %99 = add i32 8, %98
  br label %107

100:                                              ; preds = %88
  %101 = load i64, ptr %2, align 8
  %102 = trunc i64 %101 to i8
  %103 = zext i8 %102 to i64
  %104 = getelementptr inbounds [256 x i8], ptr @LogTable256, i64 0, i64 %103
  %105 = load i8, ptr %104, align 1
  %106 = zext i8 %105 to i32
  br label %107

107:                                              ; preds = %100, %93
  %108 = phi i32 [ %99, %93 ], [ %106, %100 ]
  store i32 %108, ptr %3, align 4
  br label %109

109:                                              ; preds = %107, %86
  br label %110

110:                                              ; preds = %109, %60
  %111 = load i32, ptr %3, align 4
  ret i32 %111
}

; Function Attrs: nounwind uwtable
define internal i32 @H5VM_limit_enc_size(i64 noundef %0) #0 {
  %2 = alloca i64, align 8
  store i64 %0, ptr %2, align 8
  %3 = load i64, ptr %2, align 8
  %4 = call i32 @H5VM_log2_gen(i64 noundef %3)
  %5 = udiv i32 %4, 8
  %6 = add i32 %5, 1
  ret i32 %6
}

; Function Attrs: nounwind uwtable
define internal i32 @H5P__dxfr_xform_enc(ptr noundef %0, ptr noundef %1, ptr noundef %2) #0 {
  %4 = alloca ptr, align 8
  %5 = alloca ptr, align 8
  %6 = alloca ptr, align 8
  %7 = alloca ptr, align 8
  %8 = alloca ptr, align 8
  %9 = alloca i64, align 8
  %10 = alloca ptr, align 8
  %11 = alloca i32, align 4
  %12 = alloca i8, align 1
  %13 = alloca i64, align 8
  %14 = alloca i32, align 4
  %15 = alloca i64, align 8
  %16 = alloca i64, align 8
  %17 = alloca ptr, align 8
  store ptr %0, ptr %4, align 8
  store ptr %1, ptr %5, align 8
  store ptr %2, ptr %6, align 8
  %18 = load ptr, ptr %4, align 8
  %19 = load ptr, ptr %18, align 8
  store ptr %19, ptr %7, align 8
  store ptr null, ptr %8, align 8
  store i64 0, ptr %9, align 8
  %20 = load ptr, ptr %5, align 8
  store ptr %20, ptr %10, align 8
  store i32 0, ptr %11, align 4
  store i8 0, ptr %12, align 1
  %21 = load ptr, ptr %7, align 8
  %22 = icmp ne ptr null, %21
  br i1 %22, label %23, label %46

23:                                               ; preds = %3
  %24 = load ptr, ptr %7, align 8
  %25 = call ptr @H5Z_xform_extract_xform_str(ptr noundef %24)
  store ptr %25, ptr %8, align 8
  %26 = icmp eq ptr null, %25
  br i1 %26, label %27, label %42

27:                                               ; preds = %23
  br label %28

28:                                               ; preds = %27
  br label %29

29:                                               ; preds = %28
  br label %30

30:                                               ; preds = %29
  %31 = load i64, ptr @H5E_PLIST_g, align 8
  %32 = load i64, ptr @H5E_CANTGET_g, align 8
  %33 = call i32 (ptr, ptr, i32, i64, i64, ptr, ...) @H5E_printf_stack(ptr noundef @.str.1, ptr noundef @__func__.H5P__dxfr_xform_enc, i32 noundef 734, i64 noundef %31, i64 noundef %32, ptr noundef @.str.12)
  br label %34

34:                                               ; preds = %30
  store i8 1, ptr %12, align 1
  %35 = load i8, ptr %12, align 1
  %36 = trunc i8 %35 to i1
  %37 = zext i1 %36 to i8
  store i8 %37, ptr %12, align 1
  br label %38

38:                                               ; preds = %34
  br label %39

39:                                               ; preds = %38
  store i32 -1, ptr %11, align 4
  br label %118

40:                                               ; No predecessors!
  br label %41

41:                                               ; preds = %40
  br label %42

42:                                               ; preds = %41, %23
  %43 = load ptr, ptr %8, align 8
  %44 = call i64 @strlen(ptr noundef %43) #5
  %45 = add i64 %44, 1
  store i64 %45, ptr %9, align 8
  br label %46

46:                                               ; preds = %42, %3
  %47 = load ptr, ptr %10, align 8
  %48 = load ptr, ptr %47, align 8
  %49 = icmp ne ptr null, %48
  br i1 %49, label %50, label %102

50:                                               ; preds = %46
  %51 = load i64, ptr %9, align 8
  store i64 %51, ptr %13, align 8
  %52 = load i64, ptr %13, align 8
  %53 = call i32 @H5VM_limit_enc_size(i64 noundef %52)
  store i32 %53, ptr %14, align 4
  %54 = load i32, ptr %14, align 4
  %55 = trunc i32 %54 to i8
  %56 = load ptr, ptr %10, align 8
  %57 = load ptr, ptr %56, align 8
  %58 = getelementptr inbounds i8, ptr %57, i32 1
  store ptr %58, ptr %56, align 8
  store i8 %55, ptr %57, align 1
  br label %59

59:                                               ; preds = %50
  %60 = load i64, ptr %13, align 8
  store i64 %60, ptr %15, align 8
  %61 = load ptr, ptr %10, align 8
  %62 = load ptr, ptr %61, align 8
  store ptr %62, ptr %17, align 8
  store i64 0, ptr %16, align 8
  br label %63

63:                                               ; preds = %74, %59
  %64 = load i64, ptr %16, align 8
  %65 = load i32, ptr %14, align 4
  %66 = zext i32 %65 to i64
  %67 = icmp ult i64 %64, %66
  br i1 %67, label %68, label %79

68:                                               ; preds = %63
  %69 = load i64, ptr %15, align 8
  %70 = and i64 %69, 255
  %71 = trunc i64 %70 to i8
  %72 = load ptr, ptr %17, align 8
  %73 = getelementptr inbounds i8, ptr %72, i32 1
  store ptr %73, ptr %17, align 8
  store i8 %71, ptr %72, align 1
  br label %74

74:                                               ; preds = %68
  %75 = load i64, ptr %16, align 8
  %76 = add i64 %75, 1
  store i64 %76, ptr %16, align 8
  %77 = load i64, ptr %15, align 8
  %78 = lshr i64 %77, 8
  store i64 %78, ptr %15, align 8
  br label %63

79:                                               ; preds = %63
  %80 = load ptr, ptr %10, align 8
  %81 = load ptr, ptr %80, align 8
  %82 = load i32, ptr %14, align 4
  %83 = zext i32 %82 to i64
  %84 = getelementptr inbounds i8, ptr %81, i64 %83
  %85 = load ptr, ptr %10, align 8
  store ptr %84, ptr %85, align 8
  br label %86

86:                                               ; preds = %79
  %87 = load ptr, ptr %7, align 8
  %88 = icmp ne ptr null, %87
  br i1 %88, label %89, label %101

89:                                               ; preds = %86
  %90 = load ptr, ptr %10, align 8
  %91 = load ptr, ptr %90, align 8
  %92 = load ptr, ptr %8, align 8
  %93 = load i64, ptr %9, align 8
  call void @llvm.memcpy.p0.p0.i64(ptr align 1 %91, ptr align 1 %92, i64 %93, i1 false)
  %94 = load i64, ptr %9, align 8
  %95 = load ptr, ptr %10, align 8
  %96 = load ptr, ptr %95, align 8
  %97 = getelementptr inbounds i8, ptr %96, i64 %94
  store ptr %97, ptr %95, align 8
  %98 = load ptr, ptr %10, align 8
  %99 = getelementptr inbounds ptr, ptr %98, i64 0
  %100 = load ptr, ptr %99, align 8
  store i8 0, ptr %100, align 1
  br label %101

101:                                              ; preds = %89, %86
  br label %102

102:                                              ; preds = %101, %46
  %103 = load i64, ptr %9, align 8
  %104 = call i32 @H5VM_limit_enc_size(i64 noundef %103)
  %105 = add i32 1, %104
  %106 = zext i32 %105 to i64
  %107 = load ptr, ptr %6, align 8
  %108 = load i64, ptr %107, align 8
  %109 = add i64 %108, %106
  store i64 %109, ptr %107, align 8
  %110 = load ptr, ptr %8, align 8
  %111 = icmp ne ptr null, %110
  br i1 %111, label %112, label %117

112:                                              ; preds = %102
  %113 = load i64, ptr %9, align 8
  %114 = load ptr, ptr %6, align 8
  %115 = load i64, ptr %114, align 8
  %116 = add i64 %115, %113
  store i64 %116, ptr %114, align 8
  br label %117

117:                                              ; preds = %112, %102
  br label %118

118:                                              ; preds = %117, %39
  %119 = load i32, ptr %11, align 4
  ret i32 %119
}